target datalayout = "e-m:e-p270:32:32-p271:32:32-p272:64:64-i64:64-i128:128-f80:128-n8:16:32:64-S128"
target triple = "x86_64-pc-linux-gnu"

%"class.std::__cxx11::basic_string" = type { %"struct.std::__cxx11::basic_string<char>::_Alloc_hider", i64, %union.anon }
%"struct.std::__cxx11::basic_string<char>::_Alloc_hider" = type { ptr }
%union.anon = type { i64, [8 x i8] }
%class.cmArchiveWrite = type { ptr, ptr, ptr, i8, %"class.std::__cxx11::basic_string", %"class.std::__cxx11::basic_string", %"class.std::__cxx11::basic_string", %class.cmArchiveWriteOptional, %class.cmArchiveWriteOptional, %"class.std::__cxx11::basic_string", %"class.std::__cxx11::basic_string", %class.cmArchiveWriteOptional, %class.cmArchiveWriteOptional }
%class.cmArchiveWriteOptional = type <{ i32, i8, [3 x i8] }>

; Function Attrs: mustprogress nounwind uwtable
define linkonce_odr dso_local noundef zeroext i1 @_ZNK14cmArchiveWrite4OkayEv(ptr noundef nonnull align 8 dereferenceable(224) %0) #5 comdat align 2 {
  %2 = alloca ptr, align 8
  store ptr %0, ptr %2, align 8
  %3 = load ptr, ptr %2, align 8
  %4 = getelementptr inbounds %class.cmArchiveWrite, ptr %3, i32 0, i32 5
  %5 = call noundef zeroext i1 @_ZNKSt7__cxx1112basic_stringIcSt11char_traitsIcESaIcEE5emptyEv(ptr noundef nonnull align 8 dereferenceable(32) %4) #3
  ret i1 %5
}

; Function Attrs: mustprogress uwtable
define dso_local noundef zeroext i1 @_ZN14cmArchiveWrite3AddENSt7__cxx1112basic_stringIcSt11char_traitsIcESaIcEEEmPKcb(ptr noundef nonnull align 8 dereferenceable(224) %0, ptr noundef %1, i64 noundef %2, ptr noundef %3, i1 noundef zeroext %4) #4 align 2 {
  %6 = alloca ptr, align 8
  %7 = alloca ptr, align 8
  %8 = alloca i64, align 8
  %9 = alloca ptr, align 8
  %10 = alloca i8, align 1
  store ptr %0, ptr %6, align 8
  store ptr %1, ptr %7, align 8
  store i64 %2, ptr %8, align 8
  store ptr %3, ptr %9, align 8
  %11 = zext i1 %4 to i8
  store i8 %11, ptr %10, align 1
  %12 = load ptr, ptr %6, align 8
  %13 = call noundef zeroext i1 @_ZNKSt7__cxx1112basic_stringIcSt11char_traitsIcESaIcEE5emptyEv(ptr noundef nonnull align 8 dereferenceable(32) %1) #3
  br i1 %13, label %23, label %14

14:                                               ; preds = %5
  %15 = call noundef nonnull align 1 dereferenceable(1) ptr @_ZNSt7__cxx1112basic_stringIcSt11char_traitsIcESaIcEE4backEv(ptr noundef nonnull align 8 dereferenceable(32) %1) #3
  %16 = load i8, ptr %15, align 1
  %17 = sext i8 %16 to i32
  %18 = icmp eq i32 %17, 47
  br i1 %18, label %19, label %23

19:                                               ; preds = %14
  %20 = call noundef i64 @_ZNKSt7__cxx1112basic_stringIcSt11char_traitsIcESaIcEE4sizeEv(ptr noundef nonnull align 8 dereferenceable(32) %1) #3
  %21 = sub i64 %20, 1
  %22 = call noundef nonnull align 8 dereferenceable(32) ptr @_ZNSt7__cxx1112basic_stringIcSt11char_traitsIcESaIcEE5eraseEmm(ptr noundef nonnull align 8 dereferenceable(32) %1, i64 noundef %21, i64 noundef -1)
  br label %23

23:                                               ; preds = %19, %14, %5
  %24 = call noundef ptr @_ZNKSt7__cxx1112basic_stringIcSt11char_traitsIcESaIcEE5c_strEv(ptr noundef nonnull align 8 dereferenceable(32) %1) #3
  %25 = load i64, ptr %8, align 8
  %26 = load ptr, ptr %9, align 8
  %27 = load i8, ptr %10, align 1
  %28 = trunc i8 %27 to i1
  %29 = call noundef zeroext i1 @_ZN14cmArchiveWrite7AddPathEPKcmS1_b(ptr noundef nonnull align 8 dereferenceable(224) %12, ptr noundef %24, i64 noundef %25, ptr noundef %26, i1 noundef zeroext %28)
  %30 = call noundef zeroext i1 @_ZNK14cmArchiveWrite4OkayEv(ptr noundef nonnull align 8 dereferenceable(224) %12)
  ret i1 %30
}