; Function Attrs: mustprogress uwtable
define dso_local noundef zeroext i1 @_ZN14cmArchiveWrite3AddENSt7__cxx1112basic_stringIcSt11char_traitsIcESaIcEEEmPKcb(ptr noundef nonnull align 8 dereferenceable(224) %0, ptr noundef nonnull %1, i64 noundef %2, ptr noundef %3, i1 noundef zeroext %4) local_unnamed_addr #3 align 2 {
  %6 = tail call noundef zeroext i1 @_ZNKSt7__cxx1112basic_stringIcSt11char_traitsIcESaIcEE5emptyEv(ptr noundef nonnull align 8 dereferenceable(32) %1) #14
  br i1 %6, label %15, label %7

7:                                                ; preds = %5
  %8 = tail call noundef nonnull align 1 dereferenceable(1) ptr @_ZNSt7__cxx1112basic_stringIcSt11char_traitsIcESaIcEE4backEv(ptr noundef nonnull align 8 dereferenceable(32) %1) #14
  %9 = load i8, ptr %8, align 1
  %10 = icmp eq i8 %9, 47
  br i1 %10, label %11, label %15

11:                                               ; preds = %7
  %12 = tail call noundef i64 @_ZNKSt7__cxx1112basic_stringIcSt11char_traitsIcESaIcEE4sizeEv(ptr noundef nonnull align 8 dereferenceable(32) %1) #14
  %13 = add i64 %12, -1
  %14 = tail call noundef nonnull align 8 dereferenceable(32) ptr @_ZNSt7__cxx1112basic_stringIcSt11char_traitsIcESaIcEE5eraseEmm(ptr noundef nonnull align 8 dereferenceable(32) %1, i64 noundef %13, i64 noundef -1)
  br label %15

15:                                               ; preds = %11, %7, %5
  %16 = tail call noundef ptr @_ZNKSt7__cxx1112basic_stringIcSt11char_traitsIcESaIcEE5c_strEv(ptr noundef nonnull align 8 dereferenceable(32) %1) #14
  %17 = tail call noundef zeroext i1 @_ZN14cmArchiveWrite7AddPathEPKcmS1_b(ptr noundef nonnull align 8 dereferenceable(224) %0, ptr noundef %16, i64 noundef %2, ptr noundef %3, i1 noundef zeroext %4)
  %18 = getelementptr inbounds nuw i8, ptr %0, i64 64
  %19 = tail call noundef zeroext i1 @_ZNKSt7__cxx1112basic_stringIcSt11char_traitsIcESaIcEE5emptyEv(ptr noundef nonnull align 8 dereferenceable(32) %18) #14
  ret i1 %19
}